target datalayout = "e-m:e-p270:32:32-p271:32:32-p272:64:64-i64:64-i128:128-f80:128-n8:16:32:64-S128"
target triple = "x86_64-pc-linux-gnu"

%struct._zend_executor_globals = type { %struct._zval_struct, %struct._zval_struct, [32 x ptr], ptr, ptr, %struct._zend_array, %struct._zend_array, ptr, i32, i8, %struct._zval_struct, i32, ptr, ptr, ptr, ptr, ptr, ptr, i64, ptr, ptr, i32, ptr, i32, i64, i32, i32, i32, i8, i8, %struct.zend_atomic_bool_s, %struct.zend_atomic_bool_s, ptr, i64, ptr, ptr, %struct._zend_array, %struct._zend_array, i32, i8, %struct._zval_struct, %struct._zval_struct, %struct._zend_stack, %struct._zend_stack, %struct._zend_stack, ptr, i32, i32, i64, ptr, ptr, ptr, %struct._zend_objects_store, %struct._zend_lazy_objects_store, ptr, ptr, ptr, [3 x %struct._zend_op], ptr, i8, i8, i64, i32, i32, ptr, [16 x %struct._HashTableIterator], ptr, %union._zend_function, %struct._zend_op, %struct._zend_array, i64, %struct.zend_get_gc_buffer, ptr, ptr, ptr, i64, i8, i32, ptr, ptr, i64, %struct._zend_call_stack, i64, i64, %struct._zend_strtod_state, [6 x ptr] }
%struct.zend_atomic_bool_s = type { i8 }
%struct._zval_struct = type { %union._zend_value, %union.anon, %union.anon.2 }
%union._zend_value = type { i64 }
%union.anon = type { i32 }
%union.anon.2 = type { i32 }
%struct._zend_stack = type { i32, i32, i32, ptr }
%struct._zend_objects_store = type { ptr, i32, i32, i32 }
%struct._zend_lazy_objects_store = type { %struct._zend_array }
%struct._HashTableIterator = type { ptr, i32, i32 }
%union._zend_function = type { %struct._zend_op_array }
%struct._zend_op_array = type { i8, [3 x i8], i32, ptr, ptr, ptr, i32, i32, ptr, ptr, ptr, ptr, i32, ptr, i32, i32, i32, ptr, ptr, ptr, ptr, ptr, i32, i32, ptr, ptr, ptr, i32, i32, i32, i32, ptr, ptr, [6 x ptr] }
%struct._zend_op = type { ptr, %union._znode_op, %union._znode_op, %union._znode_op, i32, i32, i8, i8, i8, i8 }
%union._znode_op = type { i32 }
%struct._zend_array = type { %struct._zend_refcounted_h, %union.anon.4, i32, %union.anon.6, i32, i32, i32, i32, i64, ptr }
%struct._zend_refcounted_h = type { i32, %union.anon.3 }
%union.anon.3 = type { i32 }
%union.anon.4 = type { i32 }
%union.anon.6 = type { ptr }
%struct.zend_get_gc_buffer = type { ptr, ptr, ptr }
%struct._zend_call_stack = type { ptr, i64 }
%struct._zend_strtod_state = type { [8 x ptr], ptr, ptr }
%struct._zend_execute_data = type { ptr, ptr, ptr, ptr, %struct._zval_struct, ptr, ptr, ptr, ptr }
%struct.anon.0 = type { i8, i8, %union.anon.1 }
%union.anon.1 = type { i16 }

@executor_globals = external global %struct._zend_executor_globals, align 8

; Function Attrs: alwaysinline nounwind uwtable
define internal zeroext i8 @zval_get_type(ptr noundef %0) #5 {
  %2 = alloca ptr, align 8
  store ptr %0, ptr %2, align 8, !tbaa !67
  %3 = load ptr, ptr %2, align 8, !tbaa !67
  %4 = getelementptr inbounds nuw %struct._zval_struct, ptr %3, i32 0, i32 1
  %5 = getelementptr inbounds nuw %struct.anon.0, ptr %4, i32 0, i32 0
  %6 = load i8, ptr %5, align 8, !tbaa !31
  ret i8 %6
}

; Function Attrs: nounwind uwtable
define hidden void @zif_restore_error_handler(ptr noundef %0, ptr noundef %1) #0 {
  %3 = alloca ptr, align 8
  %4 = alloca ptr, align 8
  %5 = alloca %struct._zval_struct, align 8
  %6 = alloca ptr, align 8
  %7 = alloca ptr, align 8
  %8 = alloca ptr, align 8
  %9 = alloca i32, align 4
  %10 = alloca ptr, align 8
  %11 = alloca ptr, align 8
  %12 = alloca ptr, align 8
  %13 = alloca ptr, align 8
  %14 = alloca i32, align 4
  store ptr %0, ptr %3, align 8, !tbaa !66
  store ptr %1, ptr %4, align 8, !tbaa !67
  br label %15

15:                                               ; preds = %2
  %16 = load ptr, ptr %3, align 8, !tbaa !66
  %17 = getelementptr inbounds nuw %struct._zend_execute_data, ptr %16, i32 0, i32 4
  %18 = getelementptr inbounds nuw %struct._zval_struct, ptr %17, i32 0, i32 2
  %19 = load i32, ptr %18, align 4, !tbaa !31
  %20 = icmp ne i32 %19, 0
  %21 = xor i1 %20, true
  %22 = xor i1 %21, true
  %23 = zext i1 %22 to i32
  %24 = sext i32 %23 to i64
  %25 = call i64 @llvm.expect.i64(i64 %24, i64 0)
  %26 = icmp ne i64 %25, 0
  br i1 %26, label %27, label %28

27:                                               ; preds = %15
  call void @zend_wrong_parameters_none_error()
  br label %88

28:                                               ; preds = %15
  br label %29

29:                                               ; preds = %28
  %30 = call zeroext i8 @zval_get_type(ptr noundef getelementptr inbounds nuw (%struct._zend_executor_globals, ptr @executor_globals, i32 0, i32 40))
  %31 = zext i8 %30 to i32
  %32 = icmp ne i32 %31, 0
  br i1 %32, label %33, label %55

33:                                               ; preds = %29
  call void @llvm.lifetime.start.p0(i64 16, ptr %5) #14
  br label %34

34:                                               ; preds = %33
  call void @llvm.lifetime.start.p0(i64 8, ptr %6) #14
  store ptr %5, ptr %6, align 8, !tbaa !67
  call void @llvm.lifetime.start.p0(i64 8, ptr %7) #14
  store ptr getelementptr inbounds nuw (%struct._zend_executor_globals, ptr @executor_globals, i32 0, i32 40), ptr %7, align 8, !tbaa !67
  call void @llvm.lifetime.start.p0(i64 8, ptr %8) #14
  %35 = load ptr, ptr %7, align 8, !tbaa !67
  %36 = getelementptr inbounds nuw %struct._zval_struct, ptr %35, i32 0, i32 0
  %37 = load ptr, ptr %36, align 8, !tbaa !31
  store ptr %37, ptr %8, align 8, !tbaa !101
  call void @llvm.lifetime.start.p0(i64 4, ptr %9) #14
  %38 = load ptr, ptr %7, align 8, !tbaa !67
  %39 = getelementptr inbounds nuw %struct._zval_struct, ptr %38, i32 0, i32 1
  %40 = load i32, ptr %39, align 8, !tbaa !31
  store i32 %40, ptr %9, align 4, !tbaa !4
  br label %41

41:                                               ; preds = %34
  %42 = load ptr, ptr %8, align 8, !tbaa !101
  %43 = load ptr, ptr %6, align 8, !tbaa !67
  %44 = getelementptr inbounds nuw %struct._zval_struct, ptr %43, i32 0, i32 0
  store ptr %42, ptr %44, align 8, !tbaa !31
  %45 = load i32, ptr %9, align 4, !tbaa !4
  %46 = load ptr, ptr %6, align 8, !tbaa !67
  %47 = getelementptr inbounds nuw %struct._zval_struct, ptr %46, i32 0, i32 1
  store i32 %45, ptr %47, align 8, !tbaa !31
  br label %48

48:                                               ; preds = %41
  br label %49

49:                                               ; preds = %48
  call void @llvm.lifetime.end.p0(i64 4, ptr %9) #14
  call void @llvm.lifetime.end.p0(i64 8, ptr %8) #14
  call void @llvm.lifetime.end.p0(i64 8, ptr %7) #14
  call void @llvm.lifetime.end.p0(i64 8, ptr %6) #14
  br label %50

50:                                               ; preds = %49
  br label %51

51:                                               ; preds = %50
  br label %52

52:                                               ; preds = %51
  store i32 0, ptr getelementptr inbounds nuw (%struct._zval_struct, ptr getelementptr inbounds nuw (%struct._zend_executor_globals, ptr @executor_globals, i32 0, i32 40), i32 0, i32 1), align 8, !tbaa !31
  br label %53

53:                                               ; preds = %52
  br label %54

54:                                               ; preds = %53
  call void @zval_ptr_dtor(ptr noundef %5)
  call void @llvm.lifetime.end.p0(i64 16, ptr %5) #14
  br label %55

55:                                               ; preds = %54, %29
  %56 = call zeroext i1 @zend_stack_is_empty(ptr noundef getelementptr inbounds nuw (%struct._zend_executor_globals, ptr @executor_globals, i32 0, i32 43))
  br i1 %56, label %57, label %60

57:                                               ; preds = %55
  br label %58

58:                                               ; preds = %57
  store i32 0, ptr getelementptr inbounds nuw (%struct._zval_struct, ptr getelementptr inbounds nuw (%struct._zend_executor_globals, ptr @executor_globals, i32 0, i32 40), i32 0, i32 1), align 8, !tbaa !31
  br label %59

59:                                               ; preds = %58
  br label %82

60:                                               ; preds = %55
  call void @llvm.lifetime.start.p0(i64 8, ptr %10) #14
  %61 = call i32 @zend_stack_int_top(ptr noundef getelementptr inbounds nuw (%struct._zend_executor_globals, ptr @executor_globals, i32 0, i32 42))
  store i32 %61, ptr getelementptr inbounds nuw (%struct._zend_executor_globals, ptr @executor_globals, i32 0, i32 38), align 8, !tbaa !176
  call void @zend_stack_del_top(ptr noundef getelementptr inbounds nuw (%struct._zend_executor_globals, ptr @executor_globals, i32 0, i32 42))
  %62 = call ptr @zend_stack_top(ptr noundef getelementptr inbounds nuw (%struct._zend_executor_globals, ptr @executor_globals, i32 0, i32 43))
  store ptr %62, ptr %10, align 8, !tbaa !67
  br label %63

63:                                               ; preds = %60
  call void @llvm.lifetime.start.p0(i64 8, ptr %11) #14
  store ptr getelementptr inbounds nuw (%struct._zend_executor_globals, ptr @executor_globals, i32 0, i32 40), ptr %11, align 8, !tbaa !67
  call void @llvm.lifetime.start.p0(i64 8, ptr %12) #14
  %64 = load ptr, ptr %10, align 8, !tbaa !67
  store ptr %64, ptr %12, align 8, !tbaa !67
  call void @llvm.lifetime.start.p0(i64 8, ptr %13) #14
  %65 = load ptr, ptr %12, align 8, !tbaa !67
  %66 = getelementptr inbounds nuw %struct._zval_struct, ptr %65, i32 0, i32 0
  %67 = load ptr, ptr %66, align 8, !tbaa !31
  store ptr %67, ptr %13, align 8, !tbaa !101
  call void @llvm.lifetime.start.p0(i64 4, ptr %14) #14
  %68 = load ptr, ptr %12, align 8, !tbaa !67
  %69 = getelementptr inbounds nuw %struct._zval_struct, ptr %68, i32 0, i32 1
  %70 = load i32, ptr %69, align 8, !tbaa !31
  store i32 %70, ptr %14, align 4, !tbaa !4
  br label %71

71:                                               ; preds = %63
  %72 = load ptr, ptr %13, align 8, !tbaa !101
  %73 = load ptr, ptr %11, align 8, !tbaa !67
  %74 = getelementptr inbounds nuw %struct._zval_struct, ptr %73, i32 0, i32 0
  store ptr %72, ptr %74, align 8, !tbaa !31
  %75 = load i32, ptr %14, align 4, !tbaa !4
  %76 = load ptr, ptr %11, align 8, !tbaa !67
  %77 = getelementptr inbounds nuw %struct._zval_struct, ptr %76, i32 0, i32 1
  store i32 %75, ptr %77, align 8, !tbaa !31
  br label %78

78:                                               ; preds = %71
  br label %79

79:                                               ; preds = %78
  call void @llvm.lifetime.end.p0(i64 4, ptr %14) #14
  call void @llvm.lifetime.end.p0(i64 8, ptr %13) #14
  call void @llvm.lifetime.end.p0(i64 8, ptr %12) #14
  call void @llvm.lifetime.end.p0(i64 8, ptr %11) #14
  br label %80

80:                                               ; preds = %79
  br label %81

81:                                               ; preds = %80
  call void @zend_stack_del_top(ptr noundef getelementptr inbounds nuw (%struct._zend_executor_globals, ptr @executor_globals, i32 0, i32 43))
  call void @llvm.lifetime.end.p0(i64 8, ptr %10) #14
  br label %82

82:                                               ; preds = %81, %59
  br label %83

83:                                               ; preds = %82
  br label %84

84:                                               ; preds = %83
  %85 = load ptr, ptr %4, align 8, !tbaa !67
  %86 = getelementptr inbounds nuw %struct._zval_struct, ptr %85, i32 0, i32 1
  store i32 3, ptr %86, align 8, !tbaa !31
  br label %87

87:                                               ; preds = %84
  br label %88

88:                                               ; preds = %27, %87
  ret void
}