; Function Attrs: nounwind uwtable
define hidden void @zif_restore_error_handler(ptr noundef readonly captures(none) %0, ptr noundef writeonly captures(none) %1) #0 {
  %3 = alloca %struct._zval_struct, align 8
  %4 = getelementptr inbounds nuw i8, ptr %0, i64 44
  %5 = load i32, ptr %4, align 4, !tbaa !28
  %.not = icmp eq i32 %5, 0
  br i1 %.not, label %7, label %6, !prof !69

6:                                                ; preds = %2
  tail call void @zend_wrong_parameters_none_error() #14
  br label %24

7:                                                ; preds = %2
  %8 = load i8, ptr getelementptr inbounds nuw (i8, ptr @executor_globals, i64 736), align 8, !tbaa !28
  %.not14 = icmp eq i8 %8, 0
  br i1 %.not14, label %13, label %9

9:                                                ; preds = %7
  call void @llvm.lifetime.start.p0(i64 16, ptr nonnull %3) #14
  %10 = load ptr, ptr getelementptr inbounds nuw (i8, ptr @executor_globals, i64 728), align 8, !tbaa !28
  %11 = load i32, ptr getelementptr inbounds nuw (i8, ptr @executor_globals, i64 736), align 8, !tbaa !28
  store ptr %10, ptr %3, align 8, !tbaa !28
  %12 = getelementptr inbounds nuw i8, ptr %3, i64 8
  store i32 %11, ptr %12, align 8, !tbaa !28
  store i32 0, ptr getelementptr inbounds nuw (i8, ptr @executor_globals, i64 736), align 8, !tbaa !28
  call void @zval_ptr_dtor(ptr noundef nonnull %3) #14
  call void @llvm.lifetime.end.p0(i64 16, ptr nonnull %3) #14
  br label %13

13:                                               ; preds = %9, %7
  %14 = call zeroext i1 @zend_stack_is_empty(ptr noundef nonnull getelementptr inbounds nuw (i8, ptr @executor_globals, i64 784)) #14
  br i1 %14, label %15, label %16

15:                                               ; preds = %13
  store i32 0, ptr getelementptr inbounds nuw (i8, ptr @executor_globals, i64 736), align 8, !tbaa !28
  br label %22

16:                                               ; preds = %13
  %17 = call i32 @zend_stack_int_top(ptr noundef nonnull getelementptr inbounds nuw (i8, ptr @executor_globals, i64 760)) #14
  store i32 %17, ptr getelementptr inbounds nuw (i8, ptr @executor_globals, i64 720), align 8, !tbaa !167
  call void @zend_stack_del_top(ptr noundef nonnull getelementptr inbounds nuw (i8, ptr @executor_globals, i64 760)) #14
  %18 = call ptr @zend_stack_top(ptr noundef nonnull getelementptr inbounds nuw (i8, ptr @executor_globals, i64 784)) #14
  %19 = load ptr, ptr %18, align 8, !tbaa !28
  %20 = getelementptr inbounds nuw i8, ptr %18, i64 8
  %21 = load i32, ptr %20, align 8, !tbaa !28
  store ptr %19, ptr getelementptr inbounds nuw (i8, ptr @executor_globals, i64 728), align 8, !tbaa !28
  store i32 %21, ptr getelementptr inbounds nuw (i8, ptr @executor_globals, i64 736), align 8, !tbaa !28
  call void @zend_stack_del_top(ptr noundef nonnull getelementptr inbounds nuw (i8, ptr @executor_globals, i64 784)) #14
  br label %22

22:                                               ; preds = %16, %15
  %23 = getelementptr inbounds nuw i8, ptr %1, i64 8
  store i32 3, ptr %23, align 8, !tbaa !28
  br label %24

24:                                               ; preds = %22, %6
  ret void
}